; ModuleID = '57/2297.c'
source_filename = "57/2297.c"
target datalayout = "e-m:e-p270:32:32-p271:32:32-p272:64:64-i64:64-f80:128-n8:16:32:64-S128"
target triple = "x86_64-pc-linux-gnu"

@.str = private unnamed_addr constant [3 x i8] c"%d\00", align 1
@.str.1 = private unnamed_addr constant [3 x i8] c"%c\00", align 1
@.str.2 = private unnamed_addr constant [2 x i8] c"\0A\00", align 1

; Function Attrs: noinline nounwind uwtable
define dso_local i32 @main() #0 {
  %1 = alloca i32, align 4
  %2 = alloca [60 x [50 x i8]], align 16
  %3 = alloca i32, align 4
  %4 = alloca i32, align 4
  %5 = alloca i32, align 4
  %6 = alloca [60 x i32], align 16
  store i32 0, i32* %1, align 4
  %7 = bitcast [60 x [50 x i8]]* %2 to i8*
  call void @llvm.memset.p0i8.i64(i8* align 16 %7, i8 0, i64 3000, i1 false)
  %8 = bitcast [60 x i32]* %6 to i8*
  call void @llvm.memset.p0i8.i64(i8* align 16 %8, i8 0, i64 240, i1 false)
  %9 = call i32 (i8*, ...) @__isoc99_scanf(i8* getelementptr inbounds ([3 x i8], [3 x i8]* @.str, i64 0, i64 0), i32* %3)
  %10 = call i32 @getchar()
  store i32 0, i32* %4, align 4
  br label %11

11:                                               ; preds = %54, %0
  %12 = load i32, i32* %4, align 4
  %13 = load i32, i32* %3, align 4
  %14 = sub nsw i32 %13, 1
  %15 = icmp sle i32 %12, %14
  br i1 %15, label %16, label %57

16:                                               ; preds = %11
  store i32 0, i32* %5, align 4
  br label %17

17:                                               ; preds = %50, %16
  %18 = load i32, i32* %5, align 4
  %19 = icmp slt i32 %18, 50
  br i1 %19, label %20, label %53

20:                                               ; preds = %17
  %21 = load i32, i32* %4, align 4
  %22 = sext i32 %21 to i64
  %23 = getelementptr inbounds [60 x [50 x i8]], [60 x [50 x i8]]* %2, i64 0, i64 %22
  %24 = load i32, i32* %5, align 4
  %25 = sext i32 %24 to i64
  %26 = getelementptr inbounds [50 x i8], [50 x i8]* %23, i64 0, i64 %25
  %27 = call i32 (i8*, ...) @__isoc99_scanf(i8* getelementptr inbounds ([3 x i8], [3 x i8]* @.str.1, i64 0, i64 0), i8* %26)
  %28 = load i32, i32* %4, align 4
  %29 = sext i32 %28 to i64
  %30 = getelementptr inbounds [60 x [50 x i8]], [60 x [50 x i8]]* %2, i64 0, i64 %29
  %31 = load i32, i32* %5, align 4
  %32 = sext i32 %31 to i64
  %33 = getelementptr inbounds [50 x i8], [50 x i8]* %30, i64 0, i64 %32
  %34 = load i8, i8* %33, align 1
  %35 = sext i8 %34 to i32
  %36 = icmp eq i32 %35, 10
  br i1 %36, label %37, label %49

37:                                               ; preds = %20
  %38 = load i32, i32* %4, align 4
  %39 = sext i32 %38 to i64
  %40 = getelementptr inbounds [60 x [50 x i8]], [60 x [50 x i8]]* %2, i64 0, i64 %39
  %41 = load i32, i32* %5, align 4
  %42 = sext i32 %41 to i64
  %43 = getelementptr inbounds [50 x i8], [50 x i8]* %40, i64 0, i64 %42
  store i8 0, i8* %43, align 1
  %44 = load i32, i32* %5, align 4
  %45 = sub nsw i32 %44, 1
  %46 = load i32, i32* %4, align 4
  %47 = sext i32 %46 to i64
  %48 = getelementptr inbounds [60 x i32], [60 x i32]* %6, i64 0, i64 %47
  store i32 %45, i32* %48, align 4
  br label %53

49:                                               ; preds = %20
  br label %50

50:                                               ; preds = %49
  %51 = load i32, i32* %5, align 4
  %52 = add nsw i32 %51, 1
  store i32 %52, i32* %5, align 4
  br label %17

53:                                               ; preds = %37, %17
  br label %54

54:                                               ; preds = %53
  %55 = load i32, i32* %4, align 4
  %56 = add nsw i32 %55, 1
  store i32 %56, i32* %4, align 4
  br label %11

57:                                               ; preds = %11
  store i32 0, i32* %4, align 4
  br label %58

58:                                               ; preds = %231, %57
  %59 = load i32, i32* %4, align 4
  %60 = load i32, i32* %3, align 4
  %61 = sub nsw i32 %60, 1
  %62 = icmp sle i32 %59, %61
  br i1 %62, label %63, label %234

63:                                               ; preds = %58
  %64 = load i32, i32* %4, align 4
  %65 = sext i32 %64 to i64
  %66 = getelementptr inbounds [60 x [50 x i8]], [60 x [50 x i8]]* %2, i64 0, i64 %65
  %67 = load i32, i32* %4, align 4
  %68 = sext i32 %67 to i64
  %69 = getelementptr inbounds [60 x i32], [60 x i32]* %6, i64 0, i64 %68
  %70 = load i32, i32* %69, align 4
  %71 = sext i32 %70 to i64
  %72 = getelementptr inbounds [50 x i8], [50 x i8]* %66, i64 0, i64 %71
  %73 = load i8, i8* %72, align 1
  %74 = sext i8 %73 to i32
  %75 = icmp eq i32 %74, 114
  br i1 %75, label %76, label %114

76:                                               ; preds = %63
  %77 = load i32, i32* %4, align 4
  %78 = sext i32 %77 to i64
  %79 = getelementptr inbounds [60 x [50 x i8]], [60 x [50 x i8]]* %2, i64 0, i64 %78
  %80 = load i32, i32* %4, align 4
  %81 = sext i32 %80 to i64
  %82 = getelementptr inbounds [60 x i32], [60 x i32]* %6, i64 0, i64 %81
  %83 = load i32, i32* %82, align 4
  %84 = sub nsw i32 %83, 1
  %85 = sext i32 %84 to i64
  %86 = getelementptr inbounds [50 x i8], [50 x i8]* %79, i64 0, i64 %85
  %87 = load i8, i8* %86, align 1
  %88 = sext i8 %87 to i32
  %89 = icmp eq i32 %88, 101
  br i1 %89, label %90, label %114

90:                                               ; preds = %76
  store i32 0, i32* %5, align 4
  br label %91

91:                                               ; preds = %109, %90
  %92 = load i32, i32* %5, align 4
  %93 = load i32, i32* %4, align 4
  %94 = sext i32 %93 to i64
  %95 = getelementptr inbounds [60 x i32], [60 x i32]* %6, i64 0, i64 %94
  %96 = load i32, i32* %95, align 4
  %97 = sub nsw i32 %96, 2
  %98 = icmp sle i32 %92, %97
  br i1 %98, label %99, label %112

99:                                               ; preds = %91
  %100 = load i32, i32* %4, align 4
  %101 = sext i32 %100 to i64
  %102 = getelementptr inbounds [60 x [50 x i8]], [60 x [50 x i8]]* %2, i64 0, i64 %101
  %103 = load i32, i32* %5, align 4
  %104 = sext i32 %103 to i64
  %105 = getelementptr inbounds [50 x i8], [50 x i8]* %102, i64 0, i64 %104
  %106 = load i8, i8* %105, align 1
  %107 = sext i8 %106 to i32
  %108 = call i32 (i8*, ...) @printf(i8* getelementptr inbounds ([3 x i8], [3 x i8]* @.str.1, i64 0, i64 0), i32 %107)
  br label %109

109:                                              ; preds = %99
  %110 = load i32, i32* %5, align 4
  %111 = add nsw i32 %110, 1
  store i32 %111, i32* %5, align 4
  br label %91

112:                                              ; preds = %91
  %113 = call i32 (i8*, ...) @printf(i8* getelementptr inbounds ([2 x i8], [2 x i8]* @.str.2, i64 0, i64 0))
  br label %231

114:                                              ; preds = %76, %63
  %115 = load i32, i32* %4, align 4
  %116 = sext i32 %115 to i64
  %117 = getelementptr inbounds [60 x [50 x i8]], [60 x [50 x i8]]* %2, i64 0, i64 %116
  %118 = load i32, i32* %4, align 4
  %119 = sext i32 %118 to i64
  %120 = getelementptr inbounds [60 x i32], [60 x i32]* %6, i64 0, i64 %119
  %121 = load i32, i32* %120, align 4
  %122 = sext i32 %121 to i64
  %123 = getelementptr inbounds [50 x i8], [50 x i8]* %117, i64 0, i64 %122
  %124 = load i8, i8* %123, align 1
  %125 = sext i8 %124 to i32
  %126 = icmp eq i32 %125, 121
  br i1 %126, label %127, label %165

127:                                              ; preds = %114
  %128 = load i32, i32* %4, align 4
  %129 = sext i32 %128 to i64
  %130 = getelementptr inbounds [60 x [50 x i8]], [60 x [50 x i8]]* %2, i64 0, i64 %129
  %131 = load i32, i32* %4, align 4
  %132 = sext i32 %131 to i64
  %133 = getelementptr inbounds [60 x i32], [60 x i32]* %6, i64 0, i64 %132
  %134 = load i32, i32* %133, align 4
  %135 = sub nsw i32 %134, 1
  %136 = sext i32 %135 to i64
  %137 = getelementptr inbounds [50 x i8], [50 x i8]* %130, i64 0, i64 %136
  %138 = load i8, i8* %137, align 1
  %139 = sext i8 %138 to i32
  %140 = icmp eq i32 %139, 108
  br i1 %140, label %141, label %165

141:                                              ; preds = %127
  store i32 0, i32* %5, align 4
  br label %142

142:                                              ; preds = %160, %141
  %143 = load i32, i32* %5, align 4
  %144 = load i32, i32* %4, align 4
  %145 = sext i32 %144 to i64
  %146 = getelementptr inbounds [60 x i32], [60 x i32]* %6, i64 0, i64 %145
  %147 = load i32, i32* %146, align 4
  %148 = sub nsw i32 %147, 2
  %149 = icmp sle i32 %143, %148
  br i1 %149, label %150, label %163

150:                                              ; preds = %142
  %151 = load i32, i32* %4, align 4
  %152 = sext i32 %151 to i64
  %153 = getelementptr inbounds [60 x [50 x i8]], [60 x [50 x i8]]* %2, i64 0, i64 %152
  %154 = load i32, i32* %5, align 4
  %155 = sext i32 %154 to i64
  %156 = getelementptr inbounds [50 x i8], [50 x i8]* %153, i64 0, i64 %155
  %157 = load i8, i8* %156, align 1
  %158 = sext i8 %157 to i32
  %159 = call i32 (i8*, ...) @printf(i8* getelementptr inbounds ([3 x i8], [3 x i8]* @.str.1, i64 0, i64 0), i32 %158)
  br label %160

160:                                              ; preds = %150
  %161 = load i32, i32* %5, align 4
  %162 = add nsw i32 %161, 1
  store i32 %162, i32* %5, align 4
  br label %142

163:                                              ; preds = %142
  %164 = call i32 (i8*, ...) @printf(i8* getelementptr inbounds ([2 x i8], [2 x i8]* @.str.2, i64 0, i64 0))
  br label %231

165:                                              ; preds = %127, %114
  %166 = load i32, i32* %4, align 4
  %167 = sext i32 %166 to i64
  %168 = getelementptr inbounds [60 x [50 x i8]], [60 x [50 x i8]]* %2, i64 0, i64 %167
  %169 = load i32, i32* %4, align 4
  %170 = sext i32 %169 to i64
  %171 = getelementptr inbounds [60 x i32], [60 x i32]* %6, i64 0, i64 %170
  %172 = load i32, i32* %171, align 4
  %173 = sext i32 %172 to i64
  %174 = getelementptr inbounds [50 x i8], [50 x i8]* %168, i64 0, i64 %173
  %175 = load i8, i8* %174, align 1
  %176 = sext i8 %175 to i32
  %177 = icmp eq i32 %176, 103
  br i1 %177, label %178, label %230

178:                                              ; preds = %165
  %179 = load i32, i32* %4, align 4
  %180 = sext i32 %179 to i64
  %181 = getelementptr inbounds [60 x [50 x i8]], [60 x [50 x i8]]* %2, i64 0, i64 %180
  %182 = load i32, i32* %4, align 4
  %183 = sext i32 %182 to i64
  %184 = getelementptr inbounds [60 x i32], [60 x i32]* %6, i64 0, i64 %183
  %185 = load i32, i32* %184, align 4
  %186 = sub nsw i32 %185, 1
  %187 = sext i32 %186 to i64
  %188 = getelementptr inbounds [50 x i8], [50 x i8]* %181, i64 0, i64 %187
  %189 = load i8, i8* %188, align 1
  %190 = sext i8 %189 to i32
  %191 = icmp eq i32 %190, 110
  br i1 %191, label %192, label %230

192:                                              ; preds = %178
  %193 = load i32, i32* %4, align 4
  %194 = sext i32 %193 to i64
  %195 = getelementptr inbounds [60 x [50 x i8]], [60 x [50 x i8]]* %2, i64 0, i64 %194
  %196 = load i32, i32* %4, align 4
  %197 = sext i32 %196 to i64
  %198 = getelementptr inbounds [60 x i32], [60 x i32]* %6, i64 0, i64 %197
  %199 = load i32, i32* %198, align 4
  %200 = sub nsw i32 %199, 2
  %201 = sext i32 %200 to i64
  %202 = getelementptr inbounds [50 x i8], [50 x i8]* %195, i64 0, i64 %201
  %203 = load i8, i8* %202, align 1
  %204 = sext i8 %203 to i32
  %205 = icmp eq i32 %204, 105
  br i1 %205, label %206, label %230

206:                                              ; preds = %192
  store i32 0, i32* %5, align 4
  br label %207

207:                                              ; preds = %225, %206
  %208 = load i32, i32* %5, align 4
  %209 = load i32, i32* %4, align 4
  %210 = sext i32 %209 to i64
  %211 = getelementptr inbounds [60 x i32], [60 x i32]* %6, i64 0, i64 %210
  %212 = load i32, i32* %211, align 4
  %213 = sub nsw i32 %212, 3
  %214 = icmp sle i32 %208, %213
  br i1 %214, label %215, label %228

215:                                              ; preds = %207
  %216 = load i32, i32* %4, align 4
  %217 = sext i32 %216 to i64
  %218 = getelementptr inbounds [60 x [50 x i8]], [60 x [50 x i8]]* %2, i64 0, i64 %217
  %219 = load i32, i32* %5, align 4
  %220 = sext i32 %219 to i64
  %221 = getelementptr inbounds [50 x i8], [50 x i8]* %218, i64 0, i64 %220
  %222 = load i8, i8* %221, align 1
  %223 = sext i8 %222 to i32
  %224 = call i32 (i8*, ...) @printf(i8* getelementptr inbounds ([3 x i8], [3 x i8]* @.str.1, i64 0, i64 0), i32 %223)
  br label %225

225:                                              ; preds = %215
  %226 = load i32, i32* %5, align 4
  %227 = add nsw i32 %226, 1
  store i32 %227, i32* %5, align 4
  br label %207

228:                                              ; preds = %207
  %229 = call i32 (i8*, ...) @printf(i8* getelementptr inbounds ([2 x i8], [2 x i8]* @.str.2, i64 0, i64 0))
  br label %231

230:                                              ; preds = %192, %178, %165
  br label %231

231:                                              ; preds = %230, %228, %163, %112
  %232 = load i32, i32* %4, align 4
  %233 = add nsw i32 %232, 1
  store i32 %233, i32* %4, align 4
  br label %58

234:                                              ; preds = %58
  ret i32 0
}

; Function Attrs: argmemonly nounwind willreturn
declare void @llvm.memset.p0i8.i64(i8* nocapture writeonly, i8, i64, i1 immarg) #1

declare dso_local i32 @__isoc99_scanf(i8*, ...) #2

declare dso_local i32 @getchar() #2

declare dso_local i32 @printf(i8*, ...) #2


!llvm.module.flags = !{!0}
!llvm.ident = !{!1}

!0 = !{i32 1, !"wchar_size", i32 4}
!1 = !{!"clang version 10.0.0-4ubuntu1 "}
